target datalayout = "e-m:e-p270:32:32-p271:32:32-p272:64:64-i64:64-i128:128-f80:128-n8:16:32:64-S128"
target triple = "x86_64-pc-linux-gnu"

%"class.std::__cxx11::basic_string" = type { %"struct.std::__cxx11::basic_string<char>::_Alloc_hider", i64, %union.anon }
%"struct.std::__cxx11::basic_string<char>::_Alloc_hider" = type { ptr }
%union.anon = type { i64, [8 x i8] }
%"struct.llvm::SubRegRangeByHwMode" = type { %"struct.llvm::InfoByHwMode" }
%"struct.llvm::InfoByHwMode" = type { %"class.std::map" }
%"class.std::map" = type { %"class.std::_Rb_tree" }
%"class.std::_Rb_tree" = type { %"struct.std::_Rb_tree<unsigned int, std::pair<const unsigned int, llvm::SubRegRange>, std::_Select1st<std::pair<const unsigned int, llvm::SubRegRange>>, std::less<unsigned int>>::_Rb_tree_impl" }
%"struct.std::_Rb_tree<unsigned int, std::pair<const unsigned int, llvm::SubRegRange>, std::_Select1st<std::pair<const unsigned int, llvm::SubRegRange>>, std::less<unsigned int>>::_Rb_tree_impl" = type { [8 x i8], %"struct.std::_Rb_tree_header" }
%"struct.std::_Rb_tree_header" = type { %"struct.std::_Rb_tree_node_base", i64 }
%"struct.std::_Rb_tree_node_base" = type { i32, ptr, ptr, ptr }
%"class.llvm::CodeGenSubRegIndex" = type { ptr, %"class.std::__cxx11::basic_string", %"class.std::__cxx11::basic_string", %"struct.llvm::SubRegRangeByHwMode", i32, %"struct.llvm::LaneBitmask", %"class.llvm::SmallVector", %"class.llvm::SmallVector.3", i8, i8, %"class.std::map.8" }
%"struct.llvm::LaneBitmask" = type { i64 }
%"class.llvm::SmallVector" = type { %"class.llvm::SmallVectorImpl", %"struct.llvm::SmallVectorStorage" }
%"class.llvm::SmallVectorImpl" = type { %"class.llvm::SmallVectorTemplateBase" }
%"class.llvm::SmallVectorTemplateBase" = type { %"class.llvm::SmallVectorTemplateCommon" }
%"class.llvm::SmallVectorTemplateCommon" = type { %"class.llvm::SmallVectorBase" }
%"class.llvm::SmallVectorBase" = type { ptr, i32, i32 }
%"struct.llvm::SmallVectorStorage" = type { [16 x i8] }
%"class.llvm::SmallVector.3" = type { %"class.llvm::SmallVectorImpl.4", %"struct.llvm::SmallVectorStorage.7" }
%"class.llvm::SmallVectorImpl.4" = type { %"class.llvm::SmallVectorTemplateBase.5" }
%"class.llvm::SmallVectorTemplateBase.5" = type { %"class.llvm::SmallVectorTemplateCommon.6" }
%"class.llvm::SmallVectorTemplateCommon.6" = type { %"class.llvm::SmallVectorBase" }
%"struct.llvm::SmallVectorStorage.7" = type { [32 x i8] }
%"class.std::map.8" = type { %"class.std::_Rb_tree.9" }
%"class.std::_Rb_tree.9" = type { %"struct.std::_Rb_tree<llvm::CodeGenSubRegIndex *, std::pair<llvm::CodeGenSubRegIndex *const, llvm::CodeGenSubRegIndex *>, std::_Select1st<std::pair<llvm::CodeGenSubRegIndex *const, llvm::CodeGenSubRegIndex *>>, llvm::deref<std::less<void>>>::_Rb_tree_impl" }
%"struct.std::_Rb_tree<llvm::CodeGenSubRegIndex *, std::pair<llvm::CodeGenSubRegIndex *const, llvm::CodeGenSubRegIndex *>, std::_Select1st<std::pair<llvm::CodeGenSubRegIndex *const, llvm::CodeGenSubRegIndex *>>, llvm::deref<std::less<void>>>::_Rb_tree_impl" = type { [8 x i8], %"struct.std::_Rb_tree_header" }

@.str.2 = private unnamed_addr constant [3 x i8] c"::\00", align 1

; Function Attrs: mustprogress nounwind uwtable
define linkonce_odr hidden noundef nonnull align 8 dereferenceable(32) ptr @_ZNK4llvm18CodeGenSubRegIndex7getNameB5cxx11Ev(ptr noundef nonnull align 8 dereferenceable(272) %0) #0 comdat align 2 {
  %2 = alloca ptr, align 8
  store ptr %0, ptr %2, align 8
  %3 = load ptr, ptr %2, align 8
  %4 = getelementptr inbounds nuw %"class.llvm::CodeGenSubRegIndex", ptr %3, i32 0, i32 1
  ret ptr %4
}

; Function Attrs: mustprogress nounwind uwtable
define linkonce_odr hidden noundef nonnull align 8 dereferenceable(32) ptr @_ZNK4llvm18CodeGenSubRegIndex12getNamespaceB5cxx11Ev(ptr noundef nonnull align 8 dereferenceable(272) %0) #0 comdat align 2 {
  %2 = alloca ptr, align 8
  store ptr %0, ptr %2, align 8
  %3 = load ptr, ptr %2, align 8
  %4 = getelementptr inbounds nuw %"class.llvm::CodeGenSubRegIndex", ptr %3, i32 0, i32 2
  ret ptr %4
}

; Function Attrs: mustprogress nounwind uwtable
define dso_local void @_ZNK4llvm18CodeGenSubRegIndex16getQualifiedNameB5cxx11Ev(ptr dead_on_unwind noalias writable sret(%"class.std::__cxx11::basic_string") align 8 %0, ptr noundef nonnull align 8 dereferenceable(272) %1) #0 align 2 {
  %3 = alloca ptr, align 8
  %4 = alloca ptr, align 8
  %5 = alloca i1, align 1
  store ptr %0, ptr %3, align 8
  store ptr %1, ptr %4, align 8
  %6 = load ptr, ptr %4, align 8
  store i1 false, ptr %5, align 1
  %7 = call noundef nonnull align 8 dereferenceable(32) ptr @_ZNK4llvm18CodeGenSubRegIndex12getNamespaceB5cxx11Ev(ptr noundef nonnull align 8 dereferenceable(272) %6)
  call void @_ZNSt7__cxx1112basic_stringIcSt11char_traitsIcESaIcEEC1ERKS4_(ptr noundef nonnull align 8 dereferenceable(32) %0, ptr noundef nonnull align 8 dereferenceable(32) %7)
  %8 = call noundef zeroext i1 @_ZNKSt7__cxx1112basic_stringIcSt11char_traitsIcESaIcEE5emptyEv(ptr noundef nonnull align 8 dereferenceable(32) %0) #6
  br i1 %8, label %11, label %9

9:                                                ; preds = %2
  %10 = call noundef nonnull align 8 dereferenceable(32) ptr @_ZNSt7__cxx1112basic_stringIcSt11char_traitsIcESaIcEEpLEPKc(ptr noundef nonnull align 8 dereferenceable(32) %0, ptr noundef @.str.2)
  br label %11

11:                                               ; preds = %9, %2
  %12 = call noundef nonnull align 8 dereferenceable(32) ptr @_ZNK4llvm18CodeGenSubRegIndex7getNameB5cxx11Ev(ptr noundef nonnull align 8 dereferenceable(272) %6)
  %13 = call noundef nonnull align 8 dereferenceable(32) ptr @_ZNSt7__cxx1112basic_stringIcSt11char_traitsIcESaIcEEpLERKS4_(ptr noundef nonnull align 8 dereferenceable(32) %0, ptr noundef nonnull align 8 dereferenceable(32) %12)
  store i1 true, ptr %5, align 1
  %14 = load i1, ptr %5, align 1
  br i1 %14, label %16, label %15

15:                                               ; preds = %11
  call void @_ZNSt7__cxx1112basic_stringIcSt11char_traitsIcESaIcEED1Ev(ptr noundef nonnull align 8 dereferenceable(32) %0) #6
  br label %16

16:                                               ; preds = %15, %11
  ret void
}